; Function Attrs: mustprogress nounwind uwtable
define internal void @_ZN4node12_GLOBAL__N_120BrotliEncoderContextD2Ev(ptr nocapture noundef nonnull align 8 dereferenceable(96) %this) unnamed_addr #3 align 2 {
entry:
  %state_ = getelementptr inbounds i8, ptr %this, i64 88
  %0 = load ptr, ptr %state_, align 8
  %cmp.not.i = icmp eq ptr %0, null
  br i1 %cmp.not.i, label %_ZNSt10unique_ptrI24BrotliEncoderStateStructN4node15FunctionDeleterIS0_XadL_Z28BrotliEncoderDestroyInstanceEEEEED2Ev.exit, label %if.then.i

if.then.i:                                        ; preds = %entry
  tail call void @BrotliEncoderDestroyInstance(ptr noundef nonnull %0) #22
  br label %_ZNSt10unique_ptrI24BrotliEncoderStateStructN4node15FunctionDeleterIS0_XadL_Z28BrotliEncoderDestroyInstanceEEEEED2Ev.exit

_ZNSt10unique_ptrI24BrotliEncoderStateStructN4node15FunctionDeleterIS0_XadL_Z28BrotliEncoderDestroyInstanceEEEEED2Ev.exit: ; preds = %entry, %if.then.i
  store ptr null, ptr %state_, align 8
  ret void
}